target datalayout = "e-m:e-p270:32:32-p271:32:32-p272:64:64-i64:64-i128:128-f80:128-n8:16:32:64-S128"
target triple = "x86_64-pc-linux-gnu"

%struct.AVIOInterruptCB = type { ptr, ptr }
%struct.Muxer = type { %struct.OutputFile, [32 x i8], ptr, ptr, i32, ptr, i32, ptr, ptr, i64, i64, i32, ptr, ptr }
%struct.OutputFile = type { ptr, i32, ptr, ptr, i32, i64, i64, i32 }
%struct.AVRational = type { i32, i32 }
%struct.OutputStream = type { ptr, i32, ptr, i32, ptr, ptr, ptr, i32, i32, i32, %struct.AVRational, %struct.KeyframeForceCtx, ptr, ptr, ptr, ptr, ptr, i64, i32, %struct.EncStats, %struct.EncStats, i32 }
%struct.KeyframeForceCtx = type { i32, i64, ptr, i32, i32, ptr, [5 x double], i32 }
%struct.EncStats = type { ptr, i32, ptr, %union.pthread_mutex_t, i32 }
%union.pthread_mutex_t = type { %struct.__pthread_mutex_s }
%struct.__pthread_mutex_s = type { i32, i32, i32, i32, i32, i16, i16, %struct.__pthread_internal_list }
%struct.__pthread_internal_list = type { ptr, ptr }
%struct.AVFormatContext = type { ptr, ptr, ptr, ptr, ptr, i32, i32, ptr, i32, ptr, i32, ptr, ptr, i64, i64, i64, i32, i32, i32, i64, i64, ptr, i32, i32, ptr, i32, i32, i32, i32, ptr, i64, i32, i32, %struct.AVIOInterruptCB, i32, i32, i32, i32, i64, i32, i32, i32, i32, i32, i32, i32, i32, i32, i32, i32, i32, i64, i32, i32, i32, i32, i32, ptr, ptr, ptr, ptr, i32, ptr, ptr, ptr, ptr, i32, ptr, ptr, i64, ptr, ptr, ptr, i64 }
%struct.AVOutputFormat = type { ptr, ptr, ptr, ptr, i32, i32, i32, i32, ptr, ptr }
%struct.MuxStream = type { %struct.OutputStream, ptr, [32 x i8], ptr, ptr, ptr, %struct.EncStats, i32, i32, i32, i32, i64, i64, i64, i64, %struct.AVRational, i64, i64, i32, i32, i32, i32, %struct.AVRational, %struct.AVRational, i32, ptr }
%struct.EncStatsComponent = type { i32, ptr, i64 }

@.str.49 = private unnamed_addr constant [57 x i8] c"Error closing logfile, loss of information possible: %s\0A\00", align 1

; Function Attrs: nounwind uwtable
define internal void @enc_stats_uninit(ptr noundef %0) #0 {
  %2 = alloca ptr, align 8
  %3 = alloca i32, align 4
  store ptr %0, ptr %2, align 8, !tbaa !185
  call void @llvm.lifetime.start.p0(i64 4, ptr %3) #10
  store i32 0, ptr %3, align 4, !tbaa !12
  br label %4

4:                                                ; preds = %19, %1
  %5 = load i32, ptr %3, align 4, !tbaa !12
  %6 = load ptr, ptr %2, align 8, !tbaa !185
  %7 = getelementptr inbounds nuw %struct.EncStats, ptr %6, i32 0, i32 1
  %8 = load i32, ptr %7, align 8, !tbaa !187
  %9 = icmp slt i32 %5, %8
  br i1 %9, label %11, label %10

10:                                               ; preds = %4
  call void @llvm.lifetime.end.p0(i64 4, ptr %3) #10
  br label %22

11:                                               ; preds = %4
  %12 = load ptr, ptr %2, align 8, !tbaa !185
  %13 = getelementptr inbounds nuw %struct.EncStats, ptr %12, i32 0, i32 0
  %14 = load ptr, ptr %13, align 8, !tbaa !188
  %15 = load i32, ptr %3, align 4, !tbaa !12
  %16 = sext i32 %15 to i64
  %17 = getelementptr inbounds %struct.EncStatsComponent, ptr %14, i64 %16
  %18 = getelementptr inbounds nuw %struct.EncStatsComponent, ptr %17, i32 0, i32 1
  call void @av_freep(ptr noundef %18)
  br label %19

19:                                               ; preds = %11
  %20 = load i32, ptr %3, align 4, !tbaa !12
  %21 = add nsw i32 %20, 1
  store i32 %21, ptr %3, align 4, !tbaa !12
  br label %4, !llvm.loop !189

22:                                               ; preds = %10
  %23 = load ptr, ptr %2, align 8, !tbaa !185
  %24 = getelementptr inbounds nuw %struct.EncStats, ptr %23, i32 0, i32 0
  call void @av_freep(ptr noundef %24)
  %25 = load ptr, ptr %2, align 8, !tbaa !185
  %26 = getelementptr inbounds nuw %struct.EncStats, ptr %25, i32 0, i32 4
  %27 = load i32, ptr %26, align 8, !tbaa !190
  %28 = icmp ne i32 %27, 0
  br i1 %28, label %29, label %33

29:                                               ; preds = %22
  %30 = load ptr, ptr %2, align 8, !tbaa !185
  %31 = getelementptr inbounds nuw %struct.EncStats, ptr %30, i32 0, i32 3
  %32 = call i32 @pthread_mutex_destroy(ptr noundef %31) #10
  br label %33

33:                                               ; preds = %29, %22
  %34 = load ptr, ptr %2, align 8, !tbaa !185
  %35 = getelementptr inbounds nuw %struct.EncStats, ptr %34, i32 0, i32 4
  store i32 0, ptr %35, align 8, !tbaa !190
  ret void
}

; Function Attrs: inlinehint nounwind uwtable
define internal ptr @av_make_error_string(ptr noundef %0, i64 noundef %1, i32 noundef %2) #4 {
  %4 = alloca ptr, align 8
  %5 = alloca i64, align 8
  %6 = alloca i32, align 4
  store ptr %0, ptr %4, align 8, !tbaa !87
  store i64 %1, ptr %5, align 8, !tbaa !101
  store i32 %2, ptr %6, align 4, !tbaa !12
  %7 = load i32, ptr %6, align 4, !tbaa !12
  %8 = load ptr, ptr %4, align 8, !tbaa !87
  %9 = load i64, ptr %5, align 8, !tbaa !101
  %10 = call i32 @av_strerror(i32 noundef %7, ptr noundef %8, i64 noundef %9)
  %11 = load ptr, ptr %4, align 8, !tbaa !87
  ret ptr %11
}

; Function Attrs: inlinehint nounwind uwtable
define internal ptr @ms_from_ost(ptr noundef %0) #4 {
  %2 = alloca ptr, align 8
  store ptr %0, ptr %2, align 8, !tbaa !38
  %3 = load ptr, ptr %2, align 8, !tbaa !38
  ret ptr %3
}

; Function Attrs: nounwind uwtable
define internal void @fc_close(ptr noundef %0) #0 {
  %2 = alloca ptr, align 8
  %3 = alloca ptr, align 8
  %4 = alloca i32, align 4
  store ptr %0, ptr %2, align 8, !tbaa !91
  call void @llvm.lifetime.start.p0(i64 8, ptr %3) #10
  %5 = load ptr, ptr %2, align 8, !tbaa !91
  %6 = load ptr, ptr %5, align 8, !tbaa !95
  store ptr %6, ptr %3, align 8, !tbaa !95
  %7 = load ptr, ptr %3, align 8, !tbaa !95
  %8 = icmp ne ptr %7, null
  br i1 %8, label %10, label %9

9:                                                ; preds = %1
  store i32 1, ptr %4, align 4
  br label %25

10:                                               ; preds = %1
  %11 = load ptr, ptr %3, align 8, !tbaa !95
  %12 = getelementptr inbounds nuw %struct.AVFormatContext, ptr %11, i32 0, i32 2
  %13 = load ptr, ptr %12, align 8, !tbaa !60
  %14 = getelementptr inbounds nuw %struct.AVOutputFormat, ptr %13, i32 0, i32 7
  %15 = load i32, ptr %14, align 4, !tbaa !124
  %16 = and i32 %15, 1
  %17 = icmp ne i32 %16, 0
  br i1 %17, label %22, label %18

18:                                               ; preds = %10
  %19 = load ptr, ptr %3, align 8, !tbaa !95
  %20 = getelementptr inbounds nuw %struct.AVFormatContext, ptr %19, i32 0, i32 4
  %21 = call i32 @avio_closep(ptr noundef %20)
  br label %22

22:                                               ; preds = %18, %10
  %23 = load ptr, ptr %3, align 8, !tbaa !95
  call void @avformat_free_context(ptr noundef %23)
  %24 = load ptr, ptr %2, align 8, !tbaa !91
  store ptr null, ptr %24, align 8, !tbaa !95
  store i32 0, ptr %4, align 4
  br label %25

25:                                               ; preds = %22, %9
  call void @llvm.lifetime.end.p0(i64 8, ptr %3) #10
  %26 = load i32, ptr %4, align 4
  switch i32 %26, label %28 [
    i32 0, label %27
    i32 1, label %27
  ]

27:                                               ; preds = %25, %25
  ret void

28:                                               ; preds = %25
  unreachable
}

; Function Attrs: nounwind uwtable
define internal void @ost_free(ptr noundef %0) #0 {
  %2 = alloca ptr, align 8
  %3 = alloca ptr, align 8
  %4 = alloca ptr, align 8
  %5 = alloca i32, align 4
  %6 = alloca [64 x i8], align 1
  store ptr %0, ptr %2, align 8, !tbaa !149
  call void @llvm.lifetime.start.p0(i64 8, ptr %3) #10
  %7 = load ptr, ptr %2, align 8, !tbaa !149
  %8 = load ptr, ptr %7, align 8, !tbaa !38
  store ptr %8, ptr %3, align 8, !tbaa !38
  call void @llvm.lifetime.start.p0(i64 8, ptr %4) #10
  %9 = load ptr, ptr %3, align 8, !tbaa !38
  %10 = icmp ne ptr %9, null
  br i1 %10, label %12, label %11

11:                                               ; preds = %1
  store i32 1, ptr %5, align 4
  br label %66

12:                                               ; preds = %1
  %13 = load ptr, ptr %3, align 8, !tbaa !38
  %14 = call ptr @ms_from_ost(ptr noundef %13)
  store ptr %14, ptr %4, align 8, !tbaa !75
  %15 = load ptr, ptr %3, align 8, !tbaa !38
  %16 = getelementptr inbounds nuw %struct.OutputStream, ptr %15, i32 0, i32 6
  call void @enc_free(ptr noundef %16)
  %17 = load ptr, ptr %3, align 8, !tbaa !38
  %18 = getelementptr inbounds nuw %struct.OutputStream, ptr %17, i32 0, i32 14
  call void @fg_free(ptr noundef %18)
  %19 = load ptr, ptr %3, align 8, !tbaa !38
  %20 = getelementptr inbounds nuw %struct.OutputStream, ptr %19, i32 0, i32 13
  %21 = load ptr, ptr %20, align 8, !tbaa !150
  %22 = icmp ne ptr %21, null
  br i1 %22, label %23, label %39

23:                                               ; preds = %12
  %24 = load ptr, ptr %3, align 8, !tbaa !38
  %25 = getelementptr inbounds nuw %struct.OutputStream, ptr %24, i32 0, i32 13
  %26 = load ptr, ptr %25, align 8, !tbaa !150
  %27 = call i32 @fclose(ptr noundef %26)
  %28 = icmp ne i32 %27, 0
  br i1 %28, label %29, label %36

29:                                               ; preds = %23
  %30 = load ptr, ptr %4, align 8, !tbaa !75
  call void @llvm.memset.p0.i64(ptr align 1 %6, i8 0, i64 64, i1 false)
  %31 = getelementptr inbounds [64 x i8], ptr %6, i64 0, i64 0
  %32 = call ptr @__errno_location() #12
  %33 = load i32, ptr %32, align 4, !tbaa !12
  %34 = sub nsw i32 0, %33
  %35 = call ptr @av_make_error_string(ptr noundef %31, i64 noundef 64, i32 noundef %34)
  call void (ptr, i32, ptr, ...) @av_log(ptr noundef %30, i32 noundef 16, ptr noundef @.str.49, ptr noundef %35)
  br label %36

36:                                               ; preds = %29, %23
  %37 = load ptr, ptr %3, align 8, !tbaa !38
  %38 = getelementptr inbounds nuw %struct.OutputStream, ptr %37, i32 0, i32 13
  store ptr null, ptr %38, align 8, !tbaa !150
  br label %39

39:                                               ; preds = %36, %12
  %40 = load ptr, ptr %4, align 8, !tbaa !75
  %41 = getelementptr inbounds nuw %struct.MuxStream, ptr %40, i32 0, i32 1
  call void @avcodec_parameters_free(ptr noundef %41)
  %42 = load ptr, ptr %4, align 8, !tbaa !75
  %43 = getelementptr inbounds nuw %struct.MuxStream, ptr %42, i32 0, i32 3
  call void @av_bsf_free(ptr noundef %43)
  %44 = load ptr, ptr %4, align 8, !tbaa !75
  %45 = getelementptr inbounds nuw %struct.MuxStream, ptr %44, i32 0, i32 4
  call void @av_packet_free(ptr noundef %45)
  %46 = load ptr, ptr %4, align 8, !tbaa !75
  %47 = getelementptr inbounds nuw %struct.MuxStream, ptr %46, i32 0, i32 5
  call void @av_packet_free(ptr noundef %47)
  %48 = load ptr, ptr %3, align 8, !tbaa !38
  %49 = getelementptr inbounds nuw %struct.OutputStream, ptr %48, i32 0, i32 11
  %50 = getelementptr inbounds nuw %struct.KeyframeForceCtx, ptr %49, i32 0, i32 2
  call void @av_freep(ptr noundef %50)
  %51 = load ptr, ptr %3, align 8, !tbaa !38
  %52 = getelementptr inbounds nuw %struct.OutputStream, ptr %51, i32 0, i32 11
  %53 = getelementptr inbounds nuw %struct.KeyframeForceCtx, ptr %52, i32 0, i32 5
  %54 = load ptr, ptr %53, align 8, !tbaa !151
  call void @av_expr_free(ptr noundef %54)
  %55 = load ptr, ptr %3, align 8, !tbaa !38
  %56 = getelementptr inbounds nuw %struct.OutputStream, ptr %55, i32 0, i32 12
  call void @av_freep(ptr noundef %56)
  %57 = load ptr, ptr %3, align 8, !tbaa !38
  %58 = getelementptr inbounds nuw %struct.OutputStream, ptr %57, i32 0, i32 16
  call void @av_freep(ptr noundef %58)
  %59 = load ptr, ptr %3, align 8, !tbaa !38
  %60 = getelementptr inbounds nuw %struct.OutputStream, ptr %59, i32 0, i32 19
  call void @enc_stats_uninit(ptr noundef %60)
  %61 = load ptr, ptr %3, align 8, !tbaa !38
  %62 = getelementptr inbounds nuw %struct.OutputStream, ptr %61, i32 0, i32 20
  call void @enc_stats_uninit(ptr noundef %62)
  %63 = load ptr, ptr %4, align 8, !tbaa !75
  %64 = getelementptr inbounds nuw %struct.MuxStream, ptr %63, i32 0, i32 6
  call void @enc_stats_uninit(ptr noundef %64)
  %65 = load ptr, ptr %2, align 8, !tbaa !149
  call void @av_freep(ptr noundef %65)
  store i32 0, ptr %5, align 4
  br label %66

66:                                               ; preds = %39, %11
  call void @llvm.lifetime.end.p0(i64 8, ptr %4) #10
  call void @llvm.lifetime.end.p0(i64 8, ptr %3) #10
  %67 = load i32, ptr %5, align 4
  switch i32 %67, label %69 [
    i32 0, label %68
    i32 1, label %68
  ]

68:                                               ; preds = %66, %66
  ret void

69:                                               ; preds = %66
  unreachable
}

; Function Attrs: nounwind uwtable
define internal ptr @mux_from_of(ptr noundef %0) #0 {
  %2 = alloca ptr, align 8
  store ptr %0, ptr %2, align 8, !tbaa !10
  %3 = load ptr, ptr %2, align 8, !tbaa !10
  ret ptr %3
}

; Function Attrs: nounwind uwtable
define void @of_free(ptr noundef %0) #0 {
  %2 = alloca ptr, align 8
  %3 = alloca ptr, align 8
  %4 = alloca ptr, align 8
  %5 = alloca i32, align 4
  %6 = alloca i32, align 4
  store ptr %0, ptr %2, align 8, !tbaa !93
  call void @llvm.lifetime.start.p0(i64 8, ptr %3) #10
  %7 = load ptr, ptr %2, align 8, !tbaa !93
  %8 = load ptr, ptr %7, align 8, !tbaa !10
  store ptr %8, ptr %3, align 8, !tbaa !10
  call void @llvm.lifetime.start.p0(i64 8, ptr %4) #10
  %9 = load ptr, ptr %3, align 8, !tbaa !10
  %10 = icmp ne ptr %9, null
  br i1 %10, label %12, label %11

11:                                               ; preds = %1
  store i32 1, ptr %5, align 4
  br label %48

12:                                               ; preds = %1
  %13 = load ptr, ptr %3, align 8, !tbaa !10
  %14 = call ptr @mux_from_of(ptr noundef %13)
  store ptr %14, ptr %4, align 8, !tbaa !8
  %15 = load ptr, ptr %4, align 8, !tbaa !8
  %16 = getelementptr inbounds nuw %struct.Muxer, ptr %15, i32 0, i32 12
  call void @sq_free(ptr noundef %16)
  call void @llvm.lifetime.start.p0(i64 4, ptr %6) #10
  store i32 0, ptr %6, align 4, !tbaa !12
  br label %17

17:                                               ; preds = %31, %12
  %18 = load i32, ptr %6, align 4, !tbaa !12
  %19 = load ptr, ptr %3, align 8, !tbaa !10
  %20 = getelementptr inbounds nuw %struct.OutputFile, ptr %19, i32 0, i32 4
  %21 = load i32, ptr %20, align 8, !tbaa !126
  %22 = icmp slt i32 %18, %21
  br i1 %22, label %24, label %23

23:                                               ; preds = %17
  store i32 2, ptr %5, align 4
  call void @llvm.lifetime.end.p0(i64 4, ptr %6) #10
  br label %34

24:                                               ; preds = %17
  %25 = load ptr, ptr %3, align 8, !tbaa !10
  %26 = getelementptr inbounds nuw %struct.OutputFile, ptr %25, i32 0, i32 3
  %27 = load ptr, ptr %26, align 8, !tbaa !36
  %28 = load i32, ptr %6, align 4, !tbaa !12
  %29 = sext i32 %28 to i64
  %30 = getelementptr inbounds ptr, ptr %27, i64 %29
  call void @ost_free(ptr noundef %30)
  br label %31

31:                                               ; preds = %24
  %32 = load i32, ptr %6, align 4, !tbaa !12
  %33 = add nsw i32 %32, 1
  store i32 %33, ptr %6, align 4, !tbaa !12
  br label %17, !llvm.loop !148

34:                                               ; preds = %23
  %35 = load ptr, ptr %3, align 8, !tbaa !10
  %36 = getelementptr inbounds nuw %struct.OutputFile, ptr %35, i32 0, i32 3
  call void @av_freep(ptr noundef %36)
  %37 = load ptr, ptr %4, align 8, !tbaa !8
  %38 = getelementptr inbounds nuw %struct.Muxer, ptr %37, i32 0, i32 5
  call void @av_freep(ptr noundef %38)
  %39 = load ptr, ptr %4, align 8, !tbaa !8
  %40 = getelementptr inbounds nuw %struct.Muxer, ptr %39, i32 0, i32 7
  call void @av_dict_free(ptr noundef %40)
  %41 = load ptr, ptr %4, align 8, !tbaa !8
  %42 = getelementptr inbounds nuw %struct.Muxer, ptr %41, i32 0, i32 8
  call void @av_dict_free(ptr noundef %42)
  %43 = load ptr, ptr %4, align 8, !tbaa !8
  %44 = getelementptr inbounds nuw %struct.Muxer, ptr %43, i32 0, i32 13
  call void @av_packet_free(ptr noundef %44)
  %45 = load ptr, ptr %4, align 8, !tbaa !8
  %46 = getelementptr inbounds nuw %struct.Muxer, ptr %45, i32 0, i32 2
  call void @fc_close(ptr noundef %46)
  %47 = load ptr, ptr %2, align 8, !tbaa !93
  call void @av_freep(ptr noundef %47)
  store i32 0, ptr %5, align 4
  br label %48

48:                                               ; preds = %34, %11
  call void @llvm.lifetime.end.p0(i64 8, ptr %4) #10
  call void @llvm.lifetime.end.p0(i64 8, ptr %3) #10
  %49 = load i32, ptr %5, align 4
  switch i32 %49, label %51 [
    i32 0, label %50
    i32 1, label %50
  ]

50:                                               ; preds = %48, %48
  ret void

51:                                               ; preds = %48
  unreachable
}