; Function Attrs: nounwind uwtable
define void @of_free(ptr noundef %0) local_unnamed_addr #0 {
  %2 = alloca [64 x i8], align 1
  %3 = load ptr, ptr %0, align 8, !tbaa !106
  %.not = icmp eq ptr %3, null
  br i1 %.not, label %100, label %4

4:                                                ; preds = %1
  %5 = getelementptr inbounds nuw i8, ptr %3, i64 176
  tail call void @sq_free(ptr noundef nonnull %5) #11
  %6 = getelementptr inbounds nuw i8, ptr %3, i64 32
  %7 = load i32, ptr %6, align 8, !tbaa !130
  %8 = icmp sgt i32 %7, 0
  br i1 %8, label %.lr.ph, label %._crit_edge

.lr.ph:                                           ; preds = %4
  %9 = getelementptr inbounds nuw i8, ptr %3, i64 24
  br label %27

._crit_edge:                                      ; preds = %ost_free.exit, %4
  %10 = getelementptr inbounds nuw i8, ptr %3, i64 24
  call void @av_freep(ptr noundef nonnull %10) #11
  %11 = getelementptr inbounds nuw i8, ptr %3, i64 120
  call void @av_freep(ptr noundef nonnull %11) #11
  %12 = getelementptr inbounds nuw i8, ptr %3, i64 136
  call void @av_dict_free(ptr noundef nonnull %12) #11
  %13 = getelementptr inbounds nuw i8, ptr %3, i64 144
  call void @av_dict_free(ptr noundef nonnull %13) #11
  %14 = getelementptr inbounds nuw i8, ptr %3, i64 184
  call void @av_packet_free(ptr noundef nonnull %14) #11
  %15 = getelementptr inbounds nuw i8, ptr %3, i64 96
  %16 = load ptr, ptr %15, align 8, !tbaa !107
  %.not.i = icmp eq ptr %16, null
  br i1 %.not.i, label %fc_close.exit, label %17

17:                                               ; preds = %._crit_edge
  %18 = getelementptr inbounds nuw i8, ptr %16, i64 16
  %19 = load ptr, ptr %18, align 8, !tbaa !26
  %20 = getelementptr inbounds nuw i8, ptr %19, i64 44
  %21 = load i32, ptr %20, align 4, !tbaa !128
  %22 = and i32 %21, 1
  %.not6.i = icmp eq i32 %22, 0
  br i1 %.not6.i, label %23, label %26

23:                                               ; preds = %17
  %24 = getelementptr inbounds nuw i8, ptr %16, i64 32
  %25 = call i32 @avio_closep(ptr noundef nonnull %24) #11
  br label %26

26:                                               ; preds = %23, %17
  call void @avformat_free_context(ptr noundef nonnull %16) #11
  store ptr null, ptr %15, align 8, !tbaa !107
  br label %fc_close.exit

fc_close.exit:                                    ; preds = %._crit_edge, %26
  call void @av_freep(ptr noundef nonnull %0) #11
  br label %100

27:                                               ; preds = %.lr.ph, %ost_free.exit
  %28 = phi i32 [ %7, %.lr.ph ], [ %97, %ost_free.exit ]
  %indvars.iv = phi i64 [ 0, %.lr.ph ], [ %indvars.iv.next, %ost_free.exit ]
  %29 = load ptr, ptr %9, align 8, !tbaa !47
  %30 = getelementptr inbounds nuw ptr, ptr %29, i64 %indvars.iv
  call void @llvm.lifetime.start.p0(i64 64, ptr nonnull %2)
  %31 = load ptr, ptr %30, align 8, !tbaa !50
  %.not.i16 = icmp eq ptr %31, null
  br i1 %.not.i16, label %ost_free.exit, label %32

32:                                               ; preds = %27
  %33 = getelementptr inbounds nuw i8, ptr %31, i64 48
  call void @enc_free(ptr noundef nonnull %33) #11
  %34 = getelementptr inbounds nuw i8, ptr %31, i64 184
  call void @fg_free(ptr noundef nonnull %34) #11
  %35 = getelementptr inbounds nuw i8, ptr %31, i64 176
  %36 = load ptr, ptr %35, align 8, !tbaa !149
  %.not22.i = icmp eq ptr %36, null
  br i1 %.not22.i, label %45, label %37

37:                                               ; preds = %32
  %38 = call i32 @fclose(ptr noundef nonnull %36)
  %.not23.i = icmp eq i32 %38, 0
  br i1 %.not23.i, label %44, label %39

39:                                               ; preds = %37
  call void @llvm.memset.p0.i64(ptr noundef nonnull align 1 dereferenceable(64) %2, i8 0, i64 64, i1 false)
  %40 = tail call ptr @__errno_location() #12
  %41 = load i32, ptr %40, align 4, !tbaa !49
  %42 = sub nsw i32 0, %41
  %43 = call i32 @av_strerror(i32 noundef %42, ptr noundef nonnull %2, i64 noundef 64) #11
  call void (ptr, i32, ptr, ...) @av_log(ptr noundef nonnull %31, i32 noundef 16, ptr noundef nonnull @.str.49, ptr noundef nonnull %2) #11
  br label %44

44:                                               ; preds = %39, %37
  store ptr null, ptr %35, align 8, !tbaa !149
  br label %45

45:                                               ; preds = %44, %32
  %46 = getelementptr inbounds nuw i8, ptr %31, i64 376
  call void @avcodec_parameters_free(ptr noundef nonnull %46) #11
  %47 = getelementptr inbounds nuw i8, ptr %31, i64 416
  call void @av_bsf_free(ptr noundef nonnull %47) #11
  %48 = getelementptr inbounds nuw i8, ptr %31, i64 424
  call void @av_packet_free(ptr noundef nonnull %48) #11
  %49 = getelementptr inbounds nuw i8, ptr %31, i64 432
  call void @av_packet_free(ptr noundef nonnull %49) #11
  %50 = getelementptr inbounds nuw i8, ptr %31, i64 96
  call void @av_freep(ptr noundef nonnull %50) #11
  %51 = getelementptr inbounds nuw i8, ptr %31, i64 112
  %52 = load ptr, ptr %51, align 8, !tbaa !150
  call void @av_expr_free(ptr noundef %52) #11
  %53 = getelementptr inbounds nuw i8, ptr %31, i64 168
  call void @av_freep(ptr noundef nonnull %53) #11
  %54 = getelementptr inbounds nuw i8, ptr %31, i64 200
  call void @av_freep(ptr noundef nonnull %54) #11
  %55 = getelementptr inbounds nuw i8, ptr %31, i64 224
  %56 = getelementptr inbounds nuw i8, ptr %31, i64 232
  %57 = load i32, ptr %56, align 8, !tbaa !151
  %58 = icmp sgt i32 %57, 0
  br i1 %58, label %.lr.ph.i.i, label %._crit_edge.i.i

._crit_edge.i.i:                                  ; preds = %.lr.ph.i.i, %45
  call void @av_freep(ptr noundef nonnull %55) #11
  %59 = getelementptr inbounds nuw i8, ptr %31, i64 288
  %60 = load i32, ptr %59, align 8, !tbaa !152
  %.not.i.i = icmp eq i32 %60, 0
  br i1 %.not.i.i, label %enc_stats_uninit.exit.i, label %66

.lr.ph.i.i:                                       ; preds = %45, %.lr.ph.i.i
  %indvars.iv.i.i = phi i64 [ %indvars.iv.next.i.i, %.lr.ph.i.i ], [ 0, %45 ]
  %61 = load ptr, ptr %55, align 8, !tbaa !153
  %62 = getelementptr inbounds nuw %struct.EncStatsComponent, ptr %61, i64 %indvars.iv.i.i, i32 1
  call void @av_freep(ptr noundef nonnull %62) #11
  %indvars.iv.next.i.i = add nuw nsw i64 %indvars.iv.i.i, 1
  %63 = load i32, ptr %56, align 8, !tbaa !151
  %64 = sext i32 %63 to i64
  %65 = icmp slt i64 %indvars.iv.next.i.i, %64
  br i1 %65, label %.lr.ph.i.i, label %._crit_edge.i.i, !llvm.loop !154

66:                                               ; preds = %._crit_edge.i.i
  %67 = getelementptr inbounds nuw i8, ptr %31, i64 248
  %68 = call i32 @pthread_mutex_destroy(ptr noundef nonnull %67) #11
  br label %enc_stats_uninit.exit.i

enc_stats_uninit.exit.i:                          ; preds = %66, %._crit_edge.i.i
  store i32 0, ptr %59, align 8, !tbaa !152
  %69 = getelementptr inbounds nuw i8, ptr %31, i64 296
  %70 = getelementptr inbounds nuw i8, ptr %31, i64 304
  %71 = load i32, ptr %70, align 8, !tbaa !151
  %72 = icmp sgt i32 %71, 0
  br i1 %72, label %.lr.ph.i26.i, label %._crit_edge.i24.i

._crit_edge.i24.i:                                ; preds = %.lr.ph.i26.i, %enc_stats_uninit.exit.i
  call void @av_freep(ptr noundef nonnull %69) #11
  %73 = getelementptr inbounds nuw i8, ptr %31, i64 360
  %74 = load i32, ptr %73, align 8, !tbaa !152
  %.not.i25.i = icmp eq i32 %74, 0
  br i1 %.not.i25.i, label %enc_stats_uninit.exit29.i, label %80

.lr.ph.i26.i:                                     ; preds = %enc_stats_uninit.exit.i, %.lr.ph.i26.i
  %indvars.iv.i27.i = phi i64 [ %indvars.iv.next.i28.i, %.lr.ph.i26.i ], [ 0, %enc_stats_uninit.exit.i ]
  %75 = load ptr, ptr %69, align 8, !tbaa !153
  %76 = getelementptr inbounds nuw %struct.EncStatsComponent, ptr %75, i64 %indvars.iv.i27.i, i32 1
  call void @av_freep(ptr noundef nonnull %76) #11
  %indvars.iv.next.i28.i = add nuw nsw i64 %indvars.iv.i27.i, 1
  %77 = load i32, ptr %70, align 8, !tbaa !151
  %78 = sext i32 %77 to i64
  %79 = icmp slt i64 %indvars.iv.next.i28.i, %78
  br i1 %79, label %.lr.ph.i26.i, label %._crit_edge.i24.i, !llvm.loop !154

80:                                               ; preds = %._crit_edge.i24.i
  %81 = getelementptr inbounds nuw i8, ptr %31, i64 320
  %82 = call i32 @pthread_mutex_destroy(ptr noundef nonnull %81) #11
  br label %enc_stats_uninit.exit29.i

enc_stats_uninit.exit29.i:                        ; preds = %80, %._crit_edge.i24.i
  store i32 0, ptr %73, align 8, !tbaa !152
  %83 = getelementptr inbounds nuw i8, ptr %31, i64 440
  %84 = getelementptr inbounds nuw i8, ptr %31, i64 448
  %85 = load i32, ptr %84, align 8, !tbaa !151
  %86 = icmp sgt i32 %85, 0
  br i1 %86, label %.lr.ph.i32.i, label %._crit_edge.i30.i

._crit_edge.i30.i:                                ; preds = %.lr.ph.i32.i, %enc_stats_uninit.exit29.i
  call void @av_freep(ptr noundef nonnull %83) #11
  %87 = getelementptr inbounds nuw i8, ptr %31, i64 504
  %88 = load i32, ptr %87, align 8, !tbaa !152
  %.not.i31.i = icmp eq i32 %88, 0
  br i1 %.not.i31.i, label %enc_stats_uninit.exit35.i, label %94

.lr.ph.i32.i:                                     ; preds = %enc_stats_uninit.exit29.i, %.lr.ph.i32.i
  %indvars.iv.i33.i = phi i64 [ %indvars.iv.next.i34.i, %.lr.ph.i32.i ], [ 0, %enc_stats_uninit.exit29.i ]
  %89 = load ptr, ptr %83, align 8, !tbaa !153
  %90 = getelementptr inbounds nuw %struct.EncStatsComponent, ptr %89, i64 %indvars.iv.i33.i, i32 1
  call void @av_freep(ptr noundef nonnull %90) #11
  %indvars.iv.next.i34.i = add nuw nsw i64 %indvars.iv.i33.i, 1
  %91 = load i32, ptr %84, align 8, !tbaa !151
  %92 = sext i32 %91 to i64
  %93 = icmp slt i64 %indvars.iv.next.i34.i, %92
  br i1 %93, label %.lr.ph.i32.i, label %._crit_edge.i30.i, !llvm.loop !154

94:                                               ; preds = %._crit_edge.i30.i
  %95 = getelementptr inbounds nuw i8, ptr %31, i64 464
  %96 = call i32 @pthread_mutex_destroy(ptr noundef nonnull %95) #11
  br label %enc_stats_uninit.exit35.i

enc_stats_uninit.exit35.i:                        ; preds = %94, %._crit_edge.i30.i
  store i32 0, ptr %87, align 8, !tbaa !152
  call void @av_freep(ptr noundef nonnull %30) #11
  %.pre = load i32, ptr %6, align 8, !tbaa !130
  br label %ost_free.exit

ost_free.exit:                                    ; preds = %27, %enc_stats_uninit.exit35.i
  %97 = phi i32 [ %28, %27 ], [ %.pre, %enc_stats_uninit.exit35.i ]
  call void @llvm.lifetime.end.p0(i64 64, ptr nonnull %2)
  %indvars.iv.next = add nuw nsw i64 %indvars.iv, 1
  %98 = sext i32 %97 to i64
  %99 = icmp slt i64 %indvars.iv.next, %98
  br i1 %99, label %27, label %._crit_edge, !llvm.loop !155

100:                                              ; preds = %1, %fc_close.exit
  ret void
}